target datalayout = "e-m:e-p270:32:32-p271:32:32-p272:64:64-i64:64-i128:128-f80:128-n8:16:32:64-S128"
target triple = "x86_64-pc-linux-gnu"

@.str.189 = private unnamed_addr constant [1 x i8] zeroinitializer, align 1
@.str.199 = private unnamed_addr constant [2 x i8] c"=\00", align 1

; Function Attrs: inlinehint nounwind sspstrong uwtable
define internal i64 @rbimpl_strlen(ptr noundef nonnull %0) #1 {
  %2 = alloca ptr, align 8
  store ptr %0, ptr %2, align 8, !tbaa !64
  %3 = load ptr, ptr %2, align 8, !tbaa !64
  %4 = call i64 @strlen(ptr noundef %3) #29
  ret i64 %4
}

; Function Attrs: inlinehint nounwind sspstrong uwtable
define internal i64 @rbimpl_str_cat_cstr(i64 noundef %0, ptr noundef nonnull %1) #1 {
  %3 = alloca i64, align 8
  %4 = alloca ptr, align 8
  %5 = alloca i64, align 8
  store i64 %0, ptr %3, align 8, !tbaa !35
  store ptr %1, ptr %4, align 8, !tbaa !64
  call void @llvm.lifetime.start.p0(i64 8, ptr %5) #27
  %6 = load ptr, ptr %4, align 8, !tbaa !64
  %7 = call i64 @rbimpl_strlen(ptr noundef %6)
  store i64 %7, ptr %5, align 8, !tbaa !35
  %8 = load i64, ptr %3, align 8, !tbaa !35
  %9 = load ptr, ptr %4, align 8, !tbaa !64
  %10 = load i64, ptr %5, align 8, !tbaa !35
  %11 = call i64 @rb_str_cat(i64 noundef %8, ptr noundef %9, i64 noundef %10)
  call void @llvm.lifetime.end.p0(i64 8, ptr %5) #27
  ret i64 %11
}

; Function Attrs: nounwind sspstrong uwtable
define internal i32 @fill_envp_buf_i(i64 noundef %0, i64 noundef %1, i64 noundef %2) #0 {
  %4 = alloca i64, align 8
  %5 = alloca i64, align 8
  %6 = alloca i64, align 8
  %7 = alloca i64, align 8
  %8 = alloca i64, align 8
  %9 = alloca i64, align 8
  store i64 %0, ptr %4, align 8, !tbaa !35
  store i64 %1, ptr %5, align 8, !tbaa !35
  store i64 %2, ptr %6, align 8, !tbaa !35
  call void @llvm.lifetime.start.p0(i64 8, ptr %7) #27
  %10 = load i64, ptr %4, align 8, !tbaa !35
  store i64 %10, ptr %7, align 8, !tbaa !35
  call void @llvm.lifetime.start.p0(i64 8, ptr %8) #27
  %11 = load i64, ptr %5, align 8, !tbaa !35
  store i64 %11, ptr %8, align 8, !tbaa !35
  call void @llvm.lifetime.start.p0(i64 8, ptr %9) #27
  %12 = load i64, ptr %6, align 8, !tbaa !35
  store i64 %12, ptr %9, align 8, !tbaa !35
  %13 = load i64, ptr %9, align 8, !tbaa !35
  %14 = call ptr @rb_string_value_cstr(ptr noundef %7)
  %15 = call i64 @rb_str_cat_cstr(i64 noundef %13, ptr noundef %14)
  %16 = load i64, ptr %9, align 8, !tbaa !35
  %17 = call i64 @rbimpl_str_cat_cstr(i64 noundef %16, ptr noundef @.str.199)
  %18 = load i64, ptr %9, align 8, !tbaa !35
  %19 = call ptr @rb_string_value_cstr(ptr noundef %8)
  %20 = call i64 @rb_str_cat_cstr(i64 noundef %18, ptr noundef %19)
  %21 = load i64, ptr %9, align 8, !tbaa !35
  %22 = call i64 @rb_str_cat(i64 noundef %21, ptr noundef @.str.189, i64 noundef 1)
  call void @llvm.lifetime.end.p0(i64 8, ptr %9) #27
  call void @llvm.lifetime.end.p0(i64 8, ptr %8) #27
  call void @llvm.lifetime.end.p0(i64 8, ptr %7) #27
  ret i32 0
}