; Function Attrs: nounwind sspstrong uwtable
define internal noundef i32 @fill_envp_buf_i(i64 noundef %0, i64 noundef %1, i64 noundef %2) #1 {
  %4 = alloca i64, align 8
  %5 = alloca i64, align 8
  call void @llvm.lifetime.start.p0(i64 8, ptr nonnull %4) #27
  store i64 %0, ptr %4, align 8, !tbaa !43
  call void @llvm.lifetime.start.p0(i64 8, ptr nonnull %5) #27
  store i64 %1, ptr %5, align 8, !tbaa !43
  %6 = call ptr @rb_string_value_cstr(ptr noundef nonnull %4) #27
  %7 = call i64 @rb_str_cat_cstr(i64 noundef %2, ptr noundef %6) #27
  %8 = call i64 @rb_str_cat(i64 noundef %2, ptr noundef nonnull @.str.199, i64 noundef 1) #27
  %9 = call ptr @rb_string_value_cstr(ptr noundef nonnull %5) #27
  %10 = call i64 @rb_str_cat_cstr(i64 noundef %2, ptr noundef %9) #27
  %11 = call i64 @rb_str_cat(i64 noundef %2, ptr noundef nonnull @.str.189, i64 noundef 1) #27
  call void @llvm.lifetime.end.p0(i64 8, ptr nonnull %5) #27
  call void @llvm.lifetime.end.p0(i64 8, ptr nonnull %4) #27
  ret i32 0
}